; Function Attrs: nounwind uwtable
define ptr @l_Lean_Compiler_LCNF_isSpecCandidate___rarg(ptr noundef %0, ptr noundef %1, ptr noundef %2) #2 {
  %4 = getelementptr inbounds nuw i8, ptr %0, i64 16
  %5 = load ptr, ptr %4, align 8, !tbaa !9
  %6 = ptrtoint ptr %5 to i64
  %7 = and i64 %6, 1
  %.not = icmp eq i64 %7, 0
  br i1 %.not, label %8, label %lean_inc.exit13

8:                                                ; preds = %3
  %.val.i = load i32, ptr %5, align 4, !tbaa !4
  %9 = icmp sgt i32 %.val.i, 0
  br i1 %9, label %10, label %12, !prof !11

10:                                               ; preds = %8
  %11 = add nuw i32 %.val.i, 1
  store i32 %11, ptr %5, align 4, !tbaa !4
  br label %lean_inc.exit13

12:                                               ; preds = %8
  %.not.i14 = icmp eq i32 %.val.i, 0
  br i1 %.not.i14, label %lean_inc.exit13, label %13

13:                                               ; preds = %12
  tail call void @lean_inc_ref_cold(ptr noundef nonnull %5) #8
  br label %lean_inc.exit13

lean_inc.exit13:                                  ; preds = %13, %12, %10, %3
  %14 = getelementptr inbounds nuw i8, ptr %1, i64 8
  %15 = load ptr, ptr %14, align 8, !tbaa !9
  %16 = ptrtoint ptr %15 to i64
  %17 = and i64 %16, 1
  %.not18 = icmp eq i64 %17, 0
  br i1 %.not18, label %18, label %lean_inc.exit

18:                                               ; preds = %lean_inc.exit13
  %.val.i15 = load i32, ptr %15, align 4, !tbaa !4
  %19 = icmp sgt i32 %.val.i15, 0
  br i1 %19, label %20, label %22, !prof !11

20:                                               ; preds = %18
  %21 = add nuw i32 %.val.i15, 1
  store i32 %21, ptr %15, align 4, !tbaa !4
  br label %lean_inc.exit

22:                                               ; preds = %18
  %.not.i16 = icmp eq i32 %.val.i15, 0
  br i1 %.not.i16, label %lean_inc.exit, label %23

23:                                               ; preds = %22
  tail call void @lean_inc_ref_cold(ptr noundef nonnull %15) #8
  br label %lean_inc.exit

lean_inc.exit:                                    ; preds = %23, %22, %20, %lean_inc.exit13
  %24 = ptrtoint ptr %1 to i64
  %25 = and i64 %24, 1
  %.not19 = icmp eq i64 %25, 0
  br i1 %.not19, label %26, label %lean_dec.exit

26:                                               ; preds = %lean_inc.exit
  %27 = load i32, ptr %1, align 4, !tbaa !4
  %28 = icmp sgt i32 %27, 1
  br i1 %28, label %29, label %31, !prof !11

29:                                               ; preds = %26
  %30 = add nsw i32 %27, -1
  store i32 %30, ptr %1, align 4, !tbaa !4
  br label %lean_dec.exit

31:                                               ; preds = %26
  %.not.i = icmp eq i32 %27, 0
  br i1 %.not.i, label %lean_dec.exit, label %32

32:                                               ; preds = %31
  tail call void @lean_dec_ref_cold(ptr noundef nonnull %1) #8
  br label %lean_dec.exit

lean_dec.exit:                                    ; preds = %32, %31, %29, %lean_inc.exit
  tail call void @lean_inc_heartbeat() #8
  %33 = tail call noalias ptr @mi_malloc_small(i64 noundef 40) #8
  %34 = icmp eq ptr %33, null
  br i1 %34, label %35, label %lean_alloc_closure.exit

35:                                               ; preds = %lean_dec.exit
  tail call void @lean_internal_panic_out_of_memory() #9
  unreachable

lean_alloc_closure.exit:                          ; preds = %lean_dec.exit
  %36 = getelementptr inbounds nuw i8, ptr %33, i64 4
  store i32 1, ptr %33, align 4, !tbaa !4
  store i32 -184549336, ptr %36, align 4
  %37 = getelementptr inbounds nuw i8, ptr %33, i64 8
  store ptr @l_Lean_Compiler_LCNF_isSpecCandidate___rarg___lambda__1, ptr %37, align 8, !tbaa !9
  %38 = getelementptr inbounds nuw i8, ptr %33, i64 16
  store i16 3, ptr %38, align 8, !tbaa !12
  %39 = getelementptr inbounds nuw i8, ptr %33, i64 18
  store i16 2, ptr %39, align 2, !tbaa !12
  %40 = getelementptr inbounds nuw i8, ptr %33, i64 24
  store ptr %0, ptr %40, align 8, !tbaa !9
  %41 = getelementptr inbounds nuw i8, ptr %33, i64 32
  store ptr %2, ptr %41, align 8, !tbaa !9
  %42 = tail call ptr @lean_apply_4(ptr noundef %5, ptr noundef nonnull inttoptr (i64 1 to ptr), ptr noundef nonnull inttoptr (i64 1 to ptr), ptr noundef %15, ptr noundef nonnull %33) #8
  ret ptr %42
}